target datalayout = "e-m:e-p270:32:32-p271:32:32-p272:64:64-i64:64-i128:128-f80:128-n8:16:32:64-S128"
target triple = "x86_64-pc-linux-gnu"

@.str = private unnamed_addr constant [33 x i8] c"\0AERROR - %s line %d failed with:\00", align 1
@.str.1 = private unnamed_addr constant [105 x i8] c"generated/home/dtcxzyw/WorkSpace/Projects/compilers/llvm-opt-benchmark/bench/wolfssl/wolfssl/tests/api.c\00", align 1
@.str.2 = private unnamed_addr constant [16 x i8] c"\0A    expected: \00", align 1
@stdout = external global ptr, align 8
@.str.3 = private unnamed_addr constant [9 x i8] c"%s == %s\00", align 1
@.str.6 = private unnamed_addr constant [16 x i8] c"\0A    result:   \00", align 1
@.str.7 = private unnamed_addr constant [9 x i8] c"%d != %d\00", align 1
@.str.8 = private unnamed_addr constant [3 x i8] c"\0A\0A\00", align 1
@.str.989 = private unnamed_addr constant [15 x i8] c"%s is not null\00", align 1
@.str.1063 = private unnamed_addr constant [13 x i8] c"\22%s\22 != \22%s\22\00", align 1
@.str.2022 = private unnamed_addr constant [30 x i8] c"wolfSSL_SNI_Status(ssl, type)\00", align 1
@.str.2023 = private unnamed_addr constant [3 x i8] c"15\00", align 1
@.str.2024 = private unnamed_addr constant [44 x i8] c"wolfSSL_SNI_GetRequest(ssl, type, &request)\00", align 1
@.str.2025 = private unnamed_addr constant [8 x i8] c"request\00", align 1
@.str.2026 = private unnamed_addr constant [16 x i8] c"request => NULL\00", align 1
@.str.2028 = private unnamed_addr constant [15 x i8] c"(char*)request\00", align 1
@.str.2033 = private unnamed_addr constant [16 x i8] c"ww2.wolfssl.com\00", align 1
@.str.2040 = private unnamed_addr constant [23 x i8] c"WOLFSSL_SNI_FAKE_MATCH\00", align 1
@.str.2041 = private unnamed_addr constant [18 x i8] c"\22ww2.wolfssl.com\22\00", align 1

; Function Attrs: nounwind uwtable
define internal void @verify_SNI_fake_matching(ptr noundef %0) #0 {
  %2 = alloca ptr, align 8
  %3 = alloca i8, align 1
  %4 = alloca ptr, align 8
  %5 = alloca i32, align 4
  %6 = alloca i32, align 4
  %7 = alloca i32, align 4
  %8 = alloca i32, align 4
  %9 = alloca ptr, align 8
  %10 = alloca ptr, align 8
  %11 = alloca i32, align 4
  store ptr %0, ptr %2, align 8, !tbaa !85
  call void @llvm.lifetime.start.p0(i64 1, ptr %3) #14
  store i8 0, ptr %3, align 1, !tbaa !58
  call void @llvm.lifetime.start.p0(i64 8, ptr %4) #14
  store ptr null, ptr %4, align 8, !tbaa !9
  br label %12

12:                                               ; preds = %1
  call void @llvm.lifetime.start.p0(i64 4, ptr %5) #14
  store i32 1, ptr %5, align 4, !tbaa !10
  call void @llvm.lifetime.start.p0(i64 4, ptr %6) #14
  %13 = load ptr, ptr %2, align 8, !tbaa !85
  %14 = load i8, ptr %3, align 1, !tbaa !58
  %15 = call zeroext i8 @wolfSSL_SNI_Status(ptr noundef %13, i8 noundef zeroext %14)
  %16 = zext i8 %15 to i32
  store i32 %16, ptr %6, align 4, !tbaa !10
  %17 = load i32, ptr %5, align 4, !tbaa !10
  %18 = load i32, ptr %6, align 4, !tbaa !10
  %19 = icmp eq i32 %17, %18
  br i1 %19, label %37, label %20

20:                                               ; preds = %12
  br label %21

21:                                               ; preds = %20
  %22 = call i32 (ptr, ...) @printf(ptr noundef @.str, ptr noundef @.str.1, i32 noundef 11506)
  %23 = load ptr, ptr @stdout, align 8, !tbaa !22
  %24 = call i32 @fputs(ptr noundef @.str.2, ptr noundef %23)
  %25 = call i32 (ptr, ...) @printf(ptr noundef @.str.3, ptr noundef @.str.2040, ptr noundef @.str.2022)
  %26 = load ptr, ptr @stdout, align 8, !tbaa !22
  %27 = call i32 @fputs(ptr noundef @.str.6, ptr noundef %26)
  %28 = load i32, ptr %5, align 4, !tbaa !10
  %29 = load i32, ptr %6, align 4, !tbaa !10
  %30 = call i32 (ptr, ...) @printf(ptr noundef @.str.7, i32 noundef %28, i32 noundef %29)
  %31 = load ptr, ptr @stdout, align 8, !tbaa !22
  %32 = call i32 @fputs(ptr noundef @.str.8, ptr noundef %31)
  %33 = load ptr, ptr @stdout, align 8, !tbaa !22
  %34 = call i32 @fflush(ptr noundef %33)
  call void @abort() #18
  unreachable

35:                                               ; No predecessors!
  br label %36

36:                                               ; preds = %35
  br label %37

37:                                               ; preds = %36, %12
  call void @llvm.lifetime.end.p0(i64 4, ptr %6) #14
  call void @llvm.lifetime.end.p0(i64 4, ptr %5) #14
  br label %38

38:                                               ; preds = %37
  br label %39

39:                                               ; preds = %38
  br label %40

40:                                               ; preds = %39
  call void @llvm.lifetime.start.p0(i64 4, ptr %7) #14
  store i32 15, ptr %7, align 4, !tbaa !10
  call void @llvm.lifetime.start.p0(i64 4, ptr %8) #14
  %41 = load ptr, ptr %2, align 8, !tbaa !85
  %42 = load i8, ptr %3, align 1, !tbaa !58
  %43 = call zeroext i16 @wolfSSL_SNI_GetRequest(ptr noundef %41, i8 noundef zeroext %42, ptr noundef %4)
  %44 = zext i16 %43 to i32
  store i32 %44, ptr %8, align 4, !tbaa !10
  %45 = load i32, ptr %7, align 4, !tbaa !10
  %46 = load i32, ptr %8, align 4, !tbaa !10
  %47 = icmp eq i32 %45, %46
  br i1 %47, label %65, label %48

48:                                               ; preds = %40
  br label %49

49:                                               ; preds = %48
  %50 = call i32 (ptr, ...) @printf(ptr noundef @.str, ptr noundef @.str.1, i32 noundef 11507)
  %51 = load ptr, ptr @stdout, align 8, !tbaa !22
  %52 = call i32 @fputs(ptr noundef @.str.2, ptr noundef %51)
  %53 = call i32 (ptr, ...) @printf(ptr noundef @.str.3, ptr noundef @.str.2023, ptr noundef @.str.2024)
  %54 = load ptr, ptr @stdout, align 8, !tbaa !22
  %55 = call i32 @fputs(ptr noundef @.str.6, ptr noundef %54)
  %56 = load i32, ptr %7, align 4, !tbaa !10
  %57 = load i32, ptr %8, align 4, !tbaa !10
  %58 = call i32 (ptr, ...) @printf(ptr noundef @.str.7, i32 noundef %56, i32 noundef %57)
  %59 = load ptr, ptr @stdout, align 8, !tbaa !22
  %60 = call i32 @fputs(ptr noundef @.str.8, ptr noundef %59)
  %61 = load ptr, ptr @stdout, align 8, !tbaa !22
  %62 = call i32 @fflush(ptr noundef %61)
  call void @abort() #18
  unreachable

63:                                               ; No predecessors!
  br label %64

64:                                               ; preds = %63
  br label %65

65:                                               ; preds = %64, %40
  call void @llvm.lifetime.end.p0(i64 4, ptr %8) #14
  call void @llvm.lifetime.end.p0(i64 4, ptr %7) #14
  br label %66

66:                                               ; preds = %65
  br label %67

67:                                               ; preds = %66
  %68 = load ptr, ptr %4, align 8, !tbaa !9
  %69 = icmp ne ptr %68, null
  br i1 %69, label %85, label %70

70:                                               ; preds = %67
  br label %71

71:                                               ; preds = %70
  %72 = call i32 (ptr, ...) @printf(ptr noundef @.str, ptr noundef @.str.1, i32 noundef 11508)
  %73 = load ptr, ptr @stdout, align 8, !tbaa !22
  %74 = call i32 @fputs(ptr noundef @.str.2, ptr noundef %73)
  %75 = call i32 (ptr, ...) @printf(ptr noundef @.str.989, ptr noundef @.str.2025)
  %76 = load ptr, ptr @stdout, align 8, !tbaa !22
  %77 = call i32 @fputs(ptr noundef @.str.6, ptr noundef %76)
  %78 = call i32 (ptr, ...) @printf(ptr noundef @.str.2026)
  %79 = load ptr, ptr @stdout, align 8, !tbaa !22
  %80 = call i32 @fputs(ptr noundef @.str.8, ptr noundef %79)
  %81 = load ptr, ptr @stdout, align 8, !tbaa !22
  %82 = call i32 @fflush(ptr noundef %81)
  call void @abort() #18
  unreachable

83:                                               ; No predecessors!
  br label %84

84:                                               ; preds = %83
  br label %85

85:                                               ; preds = %84, %67
  br label %86

86:                                               ; preds = %85
  call void @llvm.lifetime.start.p0(i64 8, ptr %9) #14
  store ptr @.str.2033, ptr %9, align 8, !tbaa !32
  call void @llvm.lifetime.start.p0(i64 8, ptr %10) #14
  %87 = load ptr, ptr %4, align 8, !tbaa !9
  store ptr %87, ptr %10, align 8, !tbaa !32
  call void @llvm.lifetime.start.p0(i64 4, ptr %11) #14
  %88 = load ptr, ptr %9, align 8, !tbaa !32
  %89 = icmp ne ptr %88, null
  br i1 %89, label %90, label %97

90:                                               ; preds = %86
  %91 = load ptr, ptr %10, align 8, !tbaa !32
  %92 = icmp ne ptr %91, null
  br i1 %92, label %93, label %97

93:                                               ; preds = %90
  %94 = load ptr, ptr %9, align 8, !tbaa !32
  %95 = load ptr, ptr %10, align 8, !tbaa !32
  %96 = call i32 @strcmp(ptr noundef %94, ptr noundef %95) #15
  br label %98

97:                                               ; preds = %90, %86
  br label %98

98:                                               ; preds = %97, %93
  %99 = phi i32 [ %96, %93 ], [ -1, %97 ]
  store i32 %99, ptr %11, align 4, !tbaa !10
  %100 = load i32, ptr %11, align 4, !tbaa !10
  %101 = icmp eq i32 %100, 0
  br i1 %101, label %119, label %102

102:                                              ; preds = %98
  br label %103

103:                                              ; preds = %102
  %104 = call i32 (ptr, ...) @printf(ptr noundef @.str, ptr noundef @.str.1, i32 noundef 11509)
  %105 = load ptr, ptr @stdout, align 8, !tbaa !22
  %106 = call i32 @fputs(ptr noundef @.str.2, ptr noundef %105)
  %107 = call i32 (ptr, ...) @printf(ptr noundef @.str.3, ptr noundef @.str.2041, ptr noundef @.str.2028)
  %108 = load ptr, ptr @stdout, align 8, !tbaa !22
  %109 = call i32 @fputs(ptr noundef @.str.6, ptr noundef %108)
  %110 = load ptr, ptr %9, align 8, !tbaa !32
  %111 = load ptr, ptr %10, align 8, !tbaa !32
  %112 = call i32 (ptr, ...) @printf(ptr noundef @.str.1063, ptr noundef %110, ptr noundef %111)
  %113 = load ptr, ptr @stdout, align 8, !tbaa !22
  %114 = call i32 @fputs(ptr noundef @.str.8, ptr noundef %113)
  %115 = load ptr, ptr @stdout, align 8, !tbaa !22
  %116 = call i32 @fflush(ptr noundef %115)
  call void @abort() #18
  unreachable

117:                                              ; No predecessors!
  br label %118

118:                                              ; preds = %117
  br label %119

119:                                              ; preds = %118, %98
  call void @llvm.lifetime.end.p0(i64 4, ptr %11) #14
  call void @llvm.lifetime.end.p0(i64 8, ptr %10) #14
  call void @llvm.lifetime.end.p0(i64 8, ptr %9) #14
  br label %120

120:                                              ; preds = %119
  br label %121

121:                                              ; preds = %120
  call void @llvm.lifetime.end.p0(i64 8, ptr %4) #14
  call void @llvm.lifetime.end.p0(i64 1, ptr %3) #14
  ret void
}